target datalayout = "e-m:e-p270:32:32-p271:32:32-p272:64:64-i64:64-i128:128-f80:128-n8:16:32:64-S128"
target triple = "x86_64-pc-linux-gnu"

%struct.expert_field = type { i32, i32 }
%struct._packet_info = type { ptr, ptr, i32, i32, %struct.nstime_t, %struct.nstime_t, %struct.nstime_t, i8, ptr, ptr, ptr, ptr, %struct._address, %struct._address, %struct._address, %struct._address, %struct._address, %struct._address, i32, ptr, i8, [3 x i8], %struct.anon, i32, i32, i32, i32, ptr, i8, ptr, ptr, i16, i16, i32, i32, i16, i32, i32, ptr, ptr, ptr, i8, i8, i16, i16, i16, i32, i16, i16, ptr, ptr, ptr, ptr, ptr, i32, i32 }
%struct.nstime_t = type { i64, i32 }
%struct._address = type { i32, i32, ptr, ptr }
%struct.anon = type { i8, [3 x i8] }

@hf_gsm_a_extension = external global i32, align 4
@hf_gsm_a_spare_bits = external global i32, align 4
@hf_gsm_a_dtap_type_of_number = internal global i32 0, align 4
@hf_gsm_a_dtap_numbering_plan_id = internal global i32 0, align 4
@hf_gsm_a_dtap_present_ind = internal global i32 0, align 4
@hf_gsm_a_dtap_screening_ind = internal global i32 0, align 4
@ei_gsm_a_dtap_end_mark_unexpected = internal global %struct.expert_field zeroinitializer, align 4

; Function Attrs: null_pointer_is_valid sspstrong uwtable
define internal zeroext i16 @de_bcd_num(ptr noundef %0, ptr noundef %1, ptr noundef %2, i32 noundef %3, i32 noundef %4, i32 noundef %5, ptr noundef %6) #1 {
  %8 = alloca i16, align 2
  %9 = alloca ptr, align 8
  %10 = alloca ptr, align 8
  %11 = alloca ptr, align 8
  %12 = alloca i32, align 4
  %13 = alloca i32, align 4
  %14 = alloca i32, align 4
  %15 = alloca ptr, align 8
  %16 = alloca i8, align 1
  %17 = alloca i32, align 4
  %18 = alloca i32, align 4
  %19 = alloca ptr, align 8
  %20 = alloca i32, align 4
  store ptr %0, ptr %9, align 8
  store ptr %1, ptr %10, align 8
  store ptr %2, ptr %11, align 8
  store i32 %3, ptr %12, align 4
  store i32 %4, ptr %13, align 4
  store i32 %5, ptr %14, align 4
  store ptr %6, ptr %15, align 8
  call void @llvm.lifetime.start.p0(i64 1, ptr %16) #7
  call void @llvm.lifetime.start.p0(i64 4, ptr %17) #7
  call void @llvm.lifetime.start.p0(i64 4, ptr %18) #7
  call void @llvm.lifetime.start.p0(i64 8, ptr %19) #7
  %21 = load ptr, ptr %15, align 8
  store ptr null, ptr %21, align 8
  %22 = load i32, ptr %12, align 4
  store i32 %22, ptr %17, align 4
  %23 = load ptr, ptr %9, align 8
  %24 = load i32, ptr %17, align 4
  %25 = call zeroext i8 @tvb_get_uint8(ptr noundef %23, i32 noundef %24)
  %26 = zext i8 %25 to i32
  %27 = and i32 %26, 128
  %28 = trunc i32 %27 to i8
  store i8 %28, ptr %16, align 1
  %29 = load ptr, ptr %10, align 8
  %30 = load i32, ptr @hf_gsm_a_extension, align 4
  %31 = load ptr, ptr %9, align 8
  %32 = load i32, ptr %17, align 4
  %33 = call ptr @proto_tree_add_item(ptr noundef %29, i32 noundef %30, ptr noundef %31, i32 noundef %32, i32 noundef 1, i32 noundef 0)
  %34 = load ptr, ptr %10, align 8
  %35 = load i32, ptr @hf_gsm_a_dtap_type_of_number, align 4
  %36 = load ptr, ptr %9, align 8
  %37 = load i32, ptr %17, align 4
  %38 = call ptr @proto_tree_add_item(ptr noundef %34, i32 noundef %35, ptr noundef %36, i32 noundef %37, i32 noundef 1, i32 noundef 0)
  %39 = load ptr, ptr %10, align 8
  %40 = load i32, ptr @hf_gsm_a_dtap_numbering_plan_id, align 4
  %41 = load ptr, ptr %9, align 8
  %42 = load i32, ptr %17, align 4
  %43 = call ptr @proto_tree_add_item(ptr noundef %39, i32 noundef %40, ptr noundef %41, i32 noundef %42, i32 noundef 1, i32 noundef 0)
  %44 = load i32, ptr %17, align 4
  %45 = add i32 %44, 1
  store i32 %45, ptr %17, align 4
  %46 = load i8, ptr %16, align 1
  %47 = icmp ne i8 %46, 0
  br i1 %47, label %73, label %48

48:                                               ; preds = %7
  %49 = load ptr, ptr %10, align 8
  %50 = load i32, ptr @hf_gsm_a_extension, align 4
  %51 = load ptr, ptr %9, align 8
  %52 = load i32, ptr %17, align 4
  %53 = call ptr @proto_tree_add_item(ptr noundef %49, i32 noundef %50, ptr noundef %51, i32 noundef %52, i32 noundef 1, i32 noundef 0)
  %54 = load ptr, ptr %10, align 8
  %55 = load i32, ptr @hf_gsm_a_dtap_present_ind, align 4
  %56 = load ptr, ptr %9, align 8
  %57 = load i32, ptr %17, align 4
  %58 = call ptr @proto_tree_add_item(ptr noundef %54, i32 noundef %55, ptr noundef %56, i32 noundef %57, i32 noundef 1, i32 noundef 0)
  %59 = load ptr, ptr %10, align 8
  %60 = load i32, ptr @hf_gsm_a_spare_bits, align 4
  %61 = load ptr, ptr %9, align 8
  %62 = load i32, ptr %17, align 4
  %63 = shl i32 %62, 3
  %64 = add i32 %63, 3
  %65 = call ptr @proto_tree_add_bits_item(ptr noundef %59, i32 noundef %60, ptr noundef %61, i32 noundef %64, i32 noundef 3, i32 noundef 0)
  %66 = load ptr, ptr %10, align 8
  %67 = load i32, ptr @hf_gsm_a_dtap_screening_ind, align 4
  %68 = load ptr, ptr %9, align 8
  %69 = load i32, ptr %17, align 4
  %70 = call ptr @proto_tree_add_item(ptr noundef %66, i32 noundef %67, ptr noundef %68, i32 noundef %69, i32 noundef 1, i32 noundef 0)
  %71 = load i32, ptr %17, align 4
  %72 = add i32 %71, 1
  store i32 %72, ptr %17, align 4
  br label %73

73:                                               ; preds = %48, %7
  %74 = load i32, ptr %13, align 4
  %75 = load i32, ptr %17, align 4
  %76 = load i32, ptr %12, align 4
  %77 = sub i32 %75, %76
  %78 = icmp ule i32 %74, %77
  br i1 %78, label %79, label %82

79:                                               ; preds = %73
  %80 = load i32, ptr %13, align 4
  %81 = trunc i32 %80 to i16
  store i16 %81, ptr %8, align 2
  store i32 1, ptr %20, align 4
  br label %109

82:                                               ; preds = %73
  %83 = load i32, ptr %13, align 4
  %84 = load i32, ptr %17, align 4
  %85 = load i32, ptr %12, align 4
  %86 = sub i32 %84, %85
  %87 = sub i32 %83, %86
  store i32 %87, ptr %18, align 4
  %88 = load ptr, ptr %10, align 8
  %89 = load i32, ptr %14, align 4
  %90 = load ptr, ptr %9, align 8
  %91 = load i32, ptr %17, align 4
  %92 = load i32, ptr %18, align 4
  %93 = load ptr, ptr %11, align 8
  %94 = getelementptr inbounds nuw %struct._packet_info, ptr %93, i32 0, i32 51
  %95 = load ptr, ptr %94, align 8
  %96 = load ptr, ptr %15, align 8
  %97 = call ptr @proto_tree_add_item_ret_display_string(ptr noundef %88, i32 noundef %89, ptr noundef %90, i32 noundef %91, i32 noundef %92, i32 noundef -2147483578, ptr noundef %95, ptr noundef %96)
  store ptr %97, ptr %19, align 8
  %98 = load ptr, ptr %15, align 8
  %99 = load ptr, ptr %98, align 8
  %100 = call ptr @strchr(ptr noundef %99, i32 noundef 63) #8
  %101 = icmp ne ptr %100, null
  br i1 %101, label %102, label %106

102:                                              ; preds = %82
  %103 = load ptr, ptr %11, align 8
  %104 = load ptr, ptr %19, align 8
  %105 = call ptr @expert_add_info(ptr noundef %103, ptr noundef %104, ptr noundef @ei_gsm_a_dtap_end_mark_unexpected)
  br label %106

106:                                              ; preds = %102, %82
  %107 = load i32, ptr %13, align 4
  %108 = trunc i32 %107 to i16
  store i16 %108, ptr %8, align 2
  store i32 1, ptr %20, align 4
  br label %109

109:                                              ; preds = %106, %79
  call void @llvm.lifetime.end.p0(i64 8, ptr %19) #7
  call void @llvm.lifetime.end.p0(i64 4, ptr %18) #7
  call void @llvm.lifetime.end.p0(i64 4, ptr %17) #7
  call void @llvm.lifetime.end.p0(i64 1, ptr %16) #7
  %110 = load i16, ptr %8, align 2
  ret i16 %110
}