; Function Attrs: null_pointer_is_valid sspstrong uwtable
define internal fastcc void @de_bcd_num(ptr noundef %0, ptr noundef %1, ptr noundef %2, i32 noundef %3, i32 noundef %4, i32 noundef %5, ptr noundef initializes((0, 8)) %6) unnamed_addr #1 {
  store ptr null, ptr %6, align 8
  %8 = tail call zeroext i8 @tvb_get_uint8(ptr noundef %0, i32 noundef %3)
  %9 = load i32, ptr @hf_gsm_a_extension, align 4
  %10 = tail call ptr @proto_tree_add_item(ptr noundef %1, i32 noundef %9, ptr noundef %0, i32 noundef %3, i32 noundef 1, i32 noundef 0)
  %11 = load i32, ptr @hf_gsm_a_dtap_type_of_number, align 4
  %12 = tail call ptr @proto_tree_add_item(ptr noundef %1, i32 noundef %11, ptr noundef %0, i32 noundef %3, i32 noundef 1, i32 noundef 0)
  %13 = load i32, ptr @hf_gsm_a_dtap_numbering_plan_id, align 4
  %14 = tail call ptr @proto_tree_add_item(ptr noundef %1, i32 noundef %13, ptr noundef %0, i32 noundef %3, i32 noundef 1, i32 noundef 0)
  %15 = add i32 %3, 1
  %.not = icmp sgt i8 %8, -1
  br i1 %.not, label %16, label %28

16:                                               ; preds = %7
  %17 = load i32, ptr @hf_gsm_a_extension, align 4
  %18 = tail call ptr @proto_tree_add_item(ptr noundef %1, i32 noundef %17, ptr noundef %0, i32 noundef %15, i32 noundef 1, i32 noundef 0)
  %19 = load i32, ptr @hf_gsm_a_dtap_present_ind, align 4
  %20 = tail call ptr @proto_tree_add_item(ptr noundef %1, i32 noundef %19, ptr noundef %0, i32 noundef %15, i32 noundef 1, i32 noundef 0)
  %21 = load i32, ptr @hf_gsm_a_spare_bits, align 4
  %22 = shl i32 %15, 3
  %23 = or disjoint i32 %22, 3
  %24 = tail call ptr @proto_tree_add_bits_item(ptr noundef %1, i32 noundef %21, ptr noundef %0, i32 noundef %23, i32 noundef 3, i32 noundef 0)
  %25 = load i32, ptr @hf_gsm_a_dtap_screening_ind, align 4
  %26 = tail call ptr @proto_tree_add_item(ptr noundef %1, i32 noundef %25, ptr noundef %0, i32 noundef %15, i32 noundef 1, i32 noundef 0)
  %27 = add i32 %3, 2
  br label %28

28:                                               ; preds = %16, %7
  %.046 = phi i32 [ %15, %7 ], [ %27, %16 ]
  %29 = sub i32 %.046, %3
  %.not49 = icmp ugt i32 %4, %29
  br i1 %.not49, label %30, label %39

30:                                               ; preds = %28
  %31 = sub nuw i32 %4, %29
  %32 = getelementptr inbounds nuw i8, ptr %2, i64 408
  %33 = load ptr, ptr %32, align 8
  %34 = tail call ptr @proto_tree_add_item_ret_display_string(ptr noundef %1, i32 noundef %5, ptr noundef %0, i32 noundef %.046, i32 noundef %31, i32 noundef -2147483578, ptr noundef %33, ptr noundef %6)
  %35 = load ptr, ptr %6, align 8
  %36 = tail call ptr @strchr(ptr noundef %35, i32 noundef 63) #9
  %.not50 = icmp eq ptr %36, null
  br i1 %.not50, label %39, label %37

37:                                               ; preds = %30
  %38 = tail call ptr @expert_add_info(ptr noundef %2, ptr noundef %34, ptr noundef nonnull @ei_gsm_a_dtap_end_mark_unexpected)
  br label %39

39:                                               ; preds = %30, %37, %28
  ret void
}